target datalayout = "e-m:e-p270:32:32-p271:32:32-p272:64:64-i64:64-i128:128-f80:128-n8:16:32:64-S128"
target triple = "x86_64-pc-linux-gnu"

%struct.ToastTupleContext = type { ptr, ptr, ptr, ptr, ptr, i8, ptr }
%struct.RelationData = type { %struct.RelFileLocator, ptr, i32, i32, i8, i8, i8, i8, i8, i32, i32, i32, i32, ptr, ptr, i32, %struct.LockInfoData, ptr, ptr, ptr, ptr, ptr, i8, ptr, ptr, ptr, ptr, ptr, ptr, i32, ptr, i8, ptr, ptr, i32, i8, i32, ptr, i8, ptr, ptr, ptr, ptr, ptr, ptr, ptr, i32, ptr, ptr, ptr, ptr, ptr, ptr, ptr, ptr, ptr, ptr, ptr, ptr, ptr, ptr, ptr, ptr, ptr, ptr, ptr, i32, i8, ptr }
%struct.RelFileLocator = type { i32, i32, i32 }
%struct.LockInfoData = type { %struct.LockRelId }
%struct.LockRelId = type { i32, i32 }
%struct.TupleDescData = type { i32, i32, i32, i32, ptr, [0 x %struct.CompactAttribute] }
%struct.CompactAttribute = type { i32, i16, i8, i8, i8, i8, i8, i8, i8 }
%struct.ToastAttrInfo = type { ptr, i32, i8, i8 }
%struct.FormData_pg_attribute = type { i32, %struct.nameData, i32, i16, i16, i32, i16, i8, i8, i8, i8, i8, i8, i8, i8, i8, i8, i8, i16, i32 }
%struct.nameData = type { [64 x i8] }
%struct.varattrib_1b = type { i8, [0 x i8] }

; Function Attrs: inlinehint nounwind uwtable
define internal ptr @DatumGetPointer(i64 noundef %0) #2 {
  %2 = alloca i64, align 8
  store i64 %0, ptr %2, align 8
  %3 = load i64, ptr %2, align 8
  %4 = inttoptr i64 %3 to ptr
  ret ptr %4
}

; Function Attrs: inlinehint nounwind uwtable
define internal ptr @TupleDescAttr(ptr noundef %0, i32 noundef %1) #2 {
  %3 = alloca ptr, align 8
  %4 = alloca i32, align 4
  %5 = alloca ptr, align 8
  store ptr %0, ptr %3, align 8
  store i32 %1, ptr %4, align 4
  call void @llvm.lifetime.start.p0(i64 8, ptr %5) #5
  %6 = load ptr, ptr %3, align 8
  %7 = load ptr, ptr %3, align 8
  %8 = getelementptr inbounds nuw %struct.TupleDescData, ptr %7, i32 0, i32 0
  %9 = load i32, ptr %8, align 8
  %10 = sext i32 %9 to i64
  %11 = mul i64 %10, 16
  %12 = add i64 24, %11
  %13 = getelementptr inbounds nuw i8, ptr %6, i64 %12
  store ptr %13, ptr %5, align 8
  %14 = load ptr, ptr %5, align 8
  %15 = load i32, ptr %4, align 4
  %16 = sext i32 %15 to i64
  %17 = getelementptr inbounds %struct.FormData_pg_attribute, ptr %14, i64 %16
  call void @llvm.lifetime.end.p0(i64 8, ptr %5) #5
  ret ptr %17
}

; Function Attrs: nounwind uwtable
define dso_local i32 @toast_tuple_find_biggest_attribute(ptr noundef %0, i1 noundef zeroext %1, i1 noundef zeroext %2) #0 {
  %4 = alloca ptr, align 8
  %5 = alloca i8, align 1
  %6 = alloca i8, align 1
  %7 = alloca ptr, align 8
  %8 = alloca i32, align 4
  %9 = alloca i32, align 4
  %10 = alloca i32, align 4
  %11 = alloca i32, align 4
  %12 = alloca i32, align 4
  %13 = alloca ptr, align 8
  %14 = alloca i32, align 4
  store ptr %0, ptr %4, align 8
  %15 = zext i1 %1 to i8
  store i8 %15, ptr %5, align 1
  %16 = zext i1 %2 to i8
  store i8 %16, ptr %6, align 1
  call void @llvm.lifetime.start.p0(i64 8, ptr %7) #5
  %17 = load ptr, ptr %4, align 8
  %18 = getelementptr inbounds nuw %struct.ToastTupleContext, ptr %17, i32 0, i32 0
  %19 = load ptr, ptr %18, align 8
  %20 = getelementptr inbounds nuw %struct.RelationData, ptr %19, i32 0, i32 14
  %21 = load ptr, ptr %20, align 8
  store ptr %21, ptr %7, align 8
  call void @llvm.lifetime.start.p0(i64 4, ptr %8) #5
  %22 = load ptr, ptr %7, align 8
  %23 = getelementptr inbounds nuw %struct.TupleDescData, ptr %22, i32 0, i32 0
  %24 = load i32, ptr %23, align 8
  store i32 %24, ptr %8, align 4
  call void @llvm.lifetime.start.p0(i64 4, ptr %9) #5
  store i32 -1, ptr %9, align 4
  call void @llvm.lifetime.start.p0(i64 4, ptr %10) #5
  store i32 24, ptr %10, align 4
  call void @llvm.lifetime.start.p0(i64 4, ptr %11) #5
  store i32 16, ptr %11, align 4
  call void @llvm.lifetime.start.p0(i64 4, ptr %12) #5
  %25 = load i8, ptr %5, align 1, !range !4, !noundef !5
  %26 = trunc i8 %25 to i1
  br i1 %26, label %27, label %30

27:                                               ; preds = %3
  %28 = load i32, ptr %11, align 4
  %29 = or i32 %28, 32
  store i32 %29, ptr %11, align 4
  br label %30

30:                                               ; preds = %27, %3
  store i32 0, ptr %12, align 4
  br label %31

31:                                               ; preds = %135, %30
  %32 = load i32, ptr %12, align 4
  %33 = load i32, ptr %8, align 4
  %34 = icmp slt i32 %32, %33
  br i1 %34, label %35, label %138

35:                                               ; preds = %31
  call void @llvm.lifetime.start.p0(i64 8, ptr %13) #5
  %36 = load ptr, ptr %7, align 8
  %37 = load i32, ptr %12, align 4
  %38 = call ptr @TupleDescAttr(ptr noundef %36, i32 noundef %37)
  store ptr %38, ptr %13, align 8
  %39 = load ptr, ptr %4, align 8
  %40 = getelementptr inbounds nuw %struct.ToastTupleContext, ptr %39, i32 0, i32 6
  %41 = load ptr, ptr %40, align 8
  %42 = load i32, ptr %12, align 4
  %43 = sext i32 %42 to i64
  %44 = getelementptr inbounds %struct.ToastAttrInfo, ptr %41, i64 %43
  %45 = getelementptr inbounds nuw %struct.ToastAttrInfo, ptr %44, i32 0, i32 2
  %46 = load i8, ptr %45, align 4
  %47 = zext i8 %46 to i32
  %48 = load i32, ptr %11, align 4
  %49 = and i32 %47, %48
  %50 = icmp ne i32 %49, 0
  br i1 %50, label %51, label %52

51:                                               ; preds = %35
  store i32 4, ptr %14, align 4
  br label %132

52:                                               ; preds = %35
  %53 = load ptr, ptr %4, align 8
  %54 = getelementptr inbounds nuw %struct.ToastTupleContext, ptr %53, i32 0, i32 1
  %55 = load ptr, ptr %54, align 8
  %56 = load i32, ptr %12, align 4
  %57 = sext i32 %56 to i64
  %58 = getelementptr inbounds i64, ptr %55, i64 %57
  %59 = load i64, ptr %58, align 8
  %60 = call ptr @DatumGetPointer(i64 noundef %59)
  %61 = getelementptr inbounds nuw %struct.varattrib_1b, ptr %60, i32 0, i32 0
  %62 = load i8, ptr %61, align 1
  %63 = zext i8 %62 to i32
  %64 = icmp eq i32 %63, 1
  br i1 %64, label %65, label %66

65:                                               ; preds = %52
  store i32 4, ptr %14, align 4
  br label %132

66:                                               ; preds = %52
  %67 = load i8, ptr %5, align 1, !range !4, !noundef !5
  %68 = trunc i8 %67 to i1
  br i1 %68, label %69, label %84

69:                                               ; preds = %66
  %70 = load ptr, ptr %4, align 8
  %71 = getelementptr inbounds nuw %struct.ToastTupleContext, ptr %70, i32 0, i32 1
  %72 = load ptr, ptr %71, align 8
  %73 = load i32, ptr %12, align 4
  %74 = sext i32 %73 to i64
  %75 = getelementptr inbounds i64, ptr %72, i64 %74
  %76 = load i64, ptr %75, align 8
  %77 = call ptr @DatumGetPointer(i64 noundef %76)
  %78 = getelementptr inbounds nuw %struct.varattrib_1b, ptr %77, i32 0, i32 0
  %79 = load i8, ptr %78, align 1
  %80 = zext i8 %79 to i32
  %81 = and i32 %80, 3
  %82 = icmp eq i32 %81, 2
  br i1 %82, label %83, label %84

83:                                               ; preds = %69
  store i32 4, ptr %14, align 4
  br label %132

84:                                               ; preds = %69, %66
  %85 = load i8, ptr %6, align 1, !range !4, !noundef !5
  %86 = trunc i8 %85 to i1
  br i1 %86, label %87, label %94

87:                                               ; preds = %84
  %88 = load ptr, ptr %13, align 8
  %89 = getelementptr inbounds nuw %struct.FormData_pg_attribute, ptr %88, i32 0, i32 9
  %90 = load i8, ptr %89, align 4
  %91 = sext i8 %90 to i32
  %92 = icmp ne i32 %91, 109
  br i1 %92, label %93, label %94

93:                                               ; preds = %87
  store i32 4, ptr %14, align 4
  br label %132

94:                                               ; preds = %87, %84
  %95 = load i8, ptr %6, align 1, !range !4, !noundef !5
  %96 = trunc i8 %95 to i1
  br i1 %96, label %110, label %97

97:                                               ; preds = %94
  %98 = load ptr, ptr %13, align 8
  %99 = getelementptr inbounds nuw %struct.FormData_pg_attribute, ptr %98, i32 0, i32 9
  %100 = load i8, ptr %99, align 4
  %101 = sext i8 %100 to i32
  %102 = icmp ne i32 %101, 120
  br i1 %102, label %103, label %110

103:                                              ; preds = %97
  %104 = load ptr, ptr %13, align 8
  %105 = getelementptr inbounds nuw %struct.FormData_pg_attribute, ptr %104, i32 0, i32 9
  %106 = load i8, ptr %105, align 4
  %107 = sext i8 %106 to i32
  %108 = icmp ne i32 %107, 101
  br i1 %108, label %109, label %110

109:                                              ; preds = %103
  store i32 4, ptr %14, align 4
  br label %132

110:                                              ; preds = %103, %97, %94
  %111 = load ptr, ptr %4, align 8
  %112 = getelementptr inbounds nuw %struct.ToastTupleContext, ptr %111, i32 0, i32 6
  %113 = load ptr, ptr %112, align 8
  %114 = load i32, ptr %12, align 4
  %115 = sext i32 %114 to i64
  %116 = getelementptr inbounds %struct.ToastAttrInfo, ptr %113, i64 %115
  %117 = getelementptr inbounds nuw %struct.ToastAttrInfo, ptr %116, i32 0, i32 1
  %118 = load i32, ptr %117, align 8
  %119 = load i32, ptr %10, align 4
  %120 = icmp sgt i32 %118, %119
  br i1 %120, label %121, label %131

121:                                              ; preds = %110
  %122 = load i32, ptr %12, align 4
  store i32 %122, ptr %9, align 4
  %123 = load ptr, ptr %4, align 8
  %124 = getelementptr inbounds nuw %struct.ToastTupleContext, ptr %123, i32 0, i32 6
  %125 = load ptr, ptr %124, align 8
  %126 = load i32, ptr %12, align 4
  %127 = sext i32 %126 to i64
  %128 = getelementptr inbounds %struct.ToastAttrInfo, ptr %125, i64 %127
  %129 = getelementptr inbounds nuw %struct.ToastAttrInfo, ptr %128, i32 0, i32 1
  %130 = load i32, ptr %129, align 8
  store i32 %130, ptr %10, align 4
  br label %131

131:                                              ; preds = %121, %110
  store i32 0, ptr %14, align 4
  br label %132

132:                                              ; preds = %131, %109, %93, %83, %65, %51
  call void @llvm.lifetime.end.p0(i64 8, ptr %13) #5
  %133 = load i32, ptr %14, align 4
  switch i32 %133, label %140 [
    i32 0, label %134
    i32 4, label %135
  ]

134:                                              ; preds = %132
  br label %135

135:                                              ; preds = %134, %132
  %136 = load i32, ptr %12, align 4
  %137 = add i32 %136, 1
  store i32 %137, ptr %12, align 4
  br label %31, !llvm.loop !8

138:                                              ; preds = %31
  %139 = load i32, ptr %9, align 4
  store i32 1, ptr %14, align 4
  call void @llvm.lifetime.end.p0(i64 4, ptr %12) #5
  call void @llvm.lifetime.end.p0(i64 4, ptr %11) #5
  call void @llvm.lifetime.end.p0(i64 4, ptr %10) #5
  call void @llvm.lifetime.end.p0(i64 4, ptr %9) #5
  call void @llvm.lifetime.end.p0(i64 4, ptr %8) #5
  call void @llvm.lifetime.end.p0(i64 8, ptr %7) #5
  ret i32 %139

140:                                              ; preds = %132
  unreachable
}